; Function Attrs: nounwind uwtable
define ptr @l___private_Lean_Meta_Tactic_Grind_Intro_0__Lean_Meta_Grind_applyCases_x3f___lambda__3(ptr noundef %0, ptr noundef %1, ptr noundef readonly captures(none) %2, ptr noundef %3, ptr readnone captures(none) %4, ptr noundef %5, ptr noundef %6, ptr noundef %7, ptr noundef %8, ptr noundef %9, ptr noundef %10, ptr noundef %11, ptr noundef %12) local_unnamed_addr #0 {
  %14 = tail call ptr @l_Lean_Expr_getAppFn(ptr noundef %3) #6
  %15 = ptrtoint ptr %14 to i64
  %16 = and i64 %15, 1
  %.not.i59 = icmp eq i64 %16, 0
  br i1 %.not.i59, label %lean_obj_tag.exit.thread, label %lean_obj_tag.exit

lean_obj_tag.exit:                                ; preds = %13
  %17 = and i64 %15, 8589934590
  %18 = icmp eq i64 %17, 8
  br i1 %18, label %21, label %lean_dec.exit

lean_obj_tag.exit.thread:                         ; preds = %13
  %19 = getelementptr i8, ptr %14, i64 4
  %.val.i = load i32, ptr %19, align 4
  %.mask = and i32 %.val.i, -16777216
  %20 = icmp eq i32 %.mask, 67108864
  br i1 %20, label %21, label %.thread

21:                                               ; preds = %lean_obj_tag.exit.thread, %lean_obj_tag.exit
  %22 = getelementptr inbounds nuw i8, ptr %14, i64 8
  %23 = load ptr, ptr %22, align 8, !tbaa !10
  %24 = ptrtoint ptr %23 to i64
  %25 = and i64 %24, 1
  %.not = icmp eq i64 %25, 0
  br i1 %.not, label %26, label %lean_inc.exit52

26:                                               ; preds = %21
  %.val.i60 = load i32, ptr %23, align 4, !tbaa !4
  %27 = icmp sgt i32 %.val.i60, 0
  br i1 %27, label %28, label %30, !prof !9

28:                                               ; preds = %26
  %29 = add nuw i32 %.val.i60, 1
  store i32 %29, ptr %23, align 4, !tbaa !4
  br label %lean_inc.exit52

30:                                               ; preds = %26
  %.not.i61 = icmp eq i32 %.val.i60, 0
  br i1 %.not.i61, label %lean_inc.exit52, label %31

31:                                               ; preds = %30
  tail call void @lean_inc_ref_cold(ptr noundef nonnull %23) #6
  br label %lean_inc.exit52

lean_inc.exit52:                                  ; preds = %31, %30, %28, %21
  br i1 %.not.i59, label %32, label %lean_dec.exit50

32:                                               ; preds = %lean_inc.exit52
  %33 = load i32, ptr %14, align 4, !tbaa !4
  %34 = icmp sgt i32 %33, 1
  br i1 %34, label %35, label %37, !prof !9

35:                                               ; preds = %32
  %36 = add nsw i32 %33, -1
  store i32 %36, ptr %14, align 4, !tbaa !4
  br label %lean_dec.exit50

37:                                               ; preds = %32
  %.not.i = icmp eq i32 %33, 0
  br i1 %.not.i, label %lean_dec.exit50, label %38

38:                                               ; preds = %37
  tail call void @lean_dec_ref_cold(ptr noundef nonnull %14) #6
  br label %lean_dec.exit50

lean_dec.exit50:                                  ; preds = %38, %37, %35, %lean_inc.exit52
  %39 = tail call ptr @l_Lean_Meta_Grind_saveCases(ptr noundef %23, i8 noundef zeroext 1, ptr noundef %5, ptr noundef %6, ptr noundef %7, ptr noundef %8, ptr noundef %9, ptr noundef %10, ptr noundef %11, ptr noundef %12) #6
  %40 = getelementptr inbounds nuw i8, ptr %39, i64 8
  %41 = load ptr, ptr %40, align 8, !tbaa !10
  %42 = ptrtoint ptr %41 to i64
  %43 = and i64 %42, 1
  %.not70 = icmp eq i64 %43, 0
  br i1 %.not70, label %44, label %lean_inc.exit51

44:                                               ; preds = %lean_dec.exit50
  %.val.i62 = load i32, ptr %41, align 4, !tbaa !4
  %45 = icmp sgt i32 %.val.i62, 0
  br i1 %45, label %46, label %48, !prof !9

46:                                               ; preds = %44
  %47 = add nuw i32 %.val.i62, 1
  store i32 %47, ptr %41, align 4, !tbaa !4
  br label %lean_inc.exit51

48:                                               ; preds = %44
  %.not.i63 = icmp eq i32 %.val.i62, 0
  br i1 %.not.i63, label %lean_inc.exit51, label %49

49:                                               ; preds = %48
  tail call void @lean_inc_ref_cold(ptr noundef nonnull %41) #6
  br label %lean_inc.exit51

lean_inc.exit51:                                  ; preds = %49, %48, %46, %lean_dec.exit50
  %50 = getelementptr inbounds nuw i8, ptr %39, i64 16
  %51 = load ptr, ptr %50, align 8, !tbaa !10
  %52 = ptrtoint ptr %51 to i64
  %53 = and i64 %52, 1
  %.not71 = icmp eq i64 %53, 0
  br i1 %.not71, label %54, label %lean_inc.exit

54:                                               ; preds = %lean_inc.exit51
  %.val.i65 = load i32, ptr %51, align 4, !tbaa !4
  %55 = icmp sgt i32 %.val.i65, 0
  br i1 %55, label %56, label %58, !prof !9

56:                                               ; preds = %54
  %57 = add nuw i32 %.val.i65, 1
  store i32 %57, ptr %51, align 4, !tbaa !4
  br label %lean_inc.exit

58:                                               ; preds = %54
  %.not.i66 = icmp eq i32 %.val.i65, 0
  br i1 %.not.i66, label %lean_inc.exit, label %59

59:                                               ; preds = %58
  tail call void @lean_inc_ref_cold(ptr noundef nonnull %51) #6
  br label %lean_inc.exit

lean_inc.exit:                                    ; preds = %59, %58, %56, %lean_inc.exit51
  %60 = ptrtoint ptr %39 to i64
  %61 = and i64 %60, 1
  %.not72 = icmp eq i64 %61, 0
  br i1 %.not72, label %62, label %lean_dec.exit49

62:                                               ; preds = %lean_inc.exit
  %63 = load i32, ptr %39, align 4, !tbaa !4
  %64 = icmp sgt i32 %63, 1
  br i1 %64, label %65, label %67, !prof !9

65:                                               ; preds = %62
  %66 = add nsw i32 %63, -1
  store i32 %66, ptr %39, align 4, !tbaa !4
  br label %lean_dec.exit49

67:                                               ; preds = %62
  %.not.i53 = icmp eq i32 %63, 0
  br i1 %.not.i53, label %lean_dec.exit49, label %68

68:                                               ; preds = %67
  tail call void @lean_dec_ref_cold(ptr noundef nonnull %39) #6
  br label %lean_dec.exit49

lean_dec.exit49:                                  ; preds = %68, %67, %65, %lean_inc.exit
  %69 = tail call ptr @l___private_Lean_Meta_Tactic_Grind_Intro_0__Lean_Meta_Grind_applyCases_x3f___lambda__2(ptr noundef %0, ptr noundef %1, ptr noundef %2, ptr poison, ptr poison, ptr poison, ptr poison, ptr noundef %8, ptr noundef %9, ptr noundef %10, ptr noundef %11, ptr noundef %51)
  br i1 %.not70, label %70, label %lean_dec.exit48

70:                                               ; preds = %lean_dec.exit49
  %71 = load i32, ptr %41, align 4, !tbaa !4
  %72 = icmp sgt i32 %71, 1
  br i1 %72, label %73, label %75, !prof !9

73:                                               ; preds = %70
  %74 = add nsw i32 %71, -1
  store i32 %74, ptr %41, align 4, !tbaa !4
  br label %lean_dec.exit48

75:                                               ; preds = %70
  %.not.i55 = icmp eq i32 %71, 0
  br i1 %.not.i55, label %lean_dec.exit48, label %76

76:                                               ; preds = %75
  tail call void @lean_dec_ref_cold(ptr noundef nonnull %41) #6
  br label %lean_dec.exit48

.thread:                                          ; preds = %lean_obj_tag.exit.thread
  %77 = load i32, ptr %14, align 4, !tbaa !4
  %78 = icmp sgt i32 %77, 1
  br i1 %78, label %79, label %81, !prof !9

79:                                               ; preds = %.thread
  %80 = add nsw i32 %77, -1
  store i32 %80, ptr %14, align 4, !tbaa !4
  br label %lean_dec.exit

81:                                               ; preds = %.thread
  %.not.i57 = icmp eq i32 %77, 0
  br i1 %.not.i57, label %lean_dec.exit, label %82

82:                                               ; preds = %81
  tail call void @lean_dec_ref_cold(ptr noundef nonnull %14) #6
  br label %lean_dec.exit

lean_dec.exit:                                    ; preds = %lean_obj_tag.exit, %82, %81, %79
  %83 = tail call ptr @l___private_Lean_Meta_Tactic_Grind_Intro_0__Lean_Meta_Grind_applyCases_x3f___lambda__2(ptr noundef %0, ptr noundef %1, ptr noundef %2, ptr nonnull poison, ptr poison, ptr poison, ptr poison, ptr noundef %8, ptr noundef %9, ptr noundef %10, ptr noundef %11, ptr noundef %12)
  br label %lean_dec.exit48

lean_dec.exit48:                                  ; preds = %lean_dec.exit49, %73, %75, %76, %lean_dec.exit
  %.0 = phi ptr [ %83, %lean_dec.exit ], [ %69, %76 ], [ %69, %75 ], [ %69, %73 ], [ %69, %lean_dec.exit49 ]
  ret ptr %.0
}